
hello_world_m33.elf:     file format elf32-littlearm


Disassembly of section .isr_vector:

00000000 <g_pfnVectors>:
   0:	20040000 			@ <UNDEFINED> instruction: 20040000
   4:	00000044 			@ <UNDEFINED> instruction: 00000044
   8:	00000087 			@ <UNDEFINED> instruction: 00000087
   c:	00000087 			@ <UNDEFINED> instruction: 00000087
  10:	00000087 			@ <UNDEFINED> instruction: 00000087
  14:	00000087 			@ <UNDEFINED> instruction: 00000087
  18:	00000087 			@ <UNDEFINED> instruction: 00000087
  1c:	00000087 			@ <UNDEFINED> instruction: 00000087
	...
  2c:	00000087 			@ <UNDEFINED> instruction: 00000087
  30:	00000087 			@ <UNDEFINED> instruction: 00000087
  34:	00000000 			@ <UNDEFINED> instruction: 00000000
  38:	00000087 			@ <UNDEFINED> instruction: 00000087
  3c:	00000087 			@ <UNDEFINED> instruction: 00000087
  40:	00000087 			@ <UNDEFINED> instruction: 00000087

Disassembly of section .text:

00000044 <Reset_Handler>:
  44:	b672      	cpsid	i
  46:	f000 f844 	bl	d2 <SystemInit>
  4a:	4810      	ldr	r0, [pc, #64]	@ (8c <Default_Handler+0x6>)
  4c:	4910      	ldr	r1, [pc, #64]	@ (90 <Default_Handler+0xa>)
  4e:	6008      	str	r0, [r1, #0]
  50:	f3bf 8f4f 	dsb	sy
  54:	f3bf 8f6f 	isb	sy
  58:	480e      	ldr	r0, [pc, #56]	@ (94 <Default_Handler+0xe>)
  5a:	490f      	ldr	r1, [pc, #60]	@ (98 <Default_Handler+0x12>)
  5c:	4a0f      	ldr	r2, [pc, #60]	@ (9c <Default_Handler+0x16>)

0000005e <data_copy_loop>:
  5e:	4291      	cmp	r1, r2
  60:	d204      	bcs.n	6c <data_copy_done>
  62:	f850 3b04 	ldr.w	r3, [r0], #4
  66:	f841 3b04 	str.w	r3, [r1], #4
  6a:	e7f8      	b.n	5e <data_copy_loop>

0000006c <data_copy_done>:
  6c:	490c      	ldr	r1, [pc, #48]	@ (a0 <Default_Handler+0x1a>)
  6e:	4a0d      	ldr	r2, [pc, #52]	@ (a4 <Default_Handler+0x1e>)
  70:	2300      	movs	r3, #0

00000072 <bss_clear_loop>:
  72:	4291      	cmp	r1, r2
  74:	d202      	bcs.n	7c <bss_clear_done>
  76:	f841 3b04 	str.w	r3, [r1], #4
  7a:	e7fa      	b.n	72 <bss_clear_loop>

0000007c <bss_clear_done>:
  7c:	b662      	cpsie	i
  7e:	f000 f829 	bl	d4 <main>

00000082 <infinite_loop>:
  82:	e7fe      	b.n	82 <infinite_loop>
  84:	4770      	bx	lr

00000086 <Default_Handler>:
  86:	f7ff bffe 	b.w	86 <Default_Handler>
  8a:	00000000 			@ <UNDEFINED> instruction: 00000000
  8e:	ed080000 			@ <UNDEFINED> instruction: ed080000
  92:	0398e000 			@ <UNDEFINED> instruction: 0398e000
  96:	00000000 			@ <UNDEFINED> instruction: 00000000
  9a:	00002000 			@ <UNDEFINED> instruction: 00002000
  9e:	00002000 			@ <UNDEFINED> instruction: 00002000
  a2:	00002000 			@ <UNDEFINED> instruction: 00002000
  a6:	 			@ <UNDEFINED> instruction: f04f2000

000000a8 <uart_puts>:
}

/* Send a single character via UART */
static void uart_putchar(char c) {
    /* Wait until transmit FIFO is not full */
    while (UART_FR & UART_FR_TXFF) {
  a8:	f04f 4380 	mov.w	r3, #1073741824	@ 0x40000000
        /* Wait */
    }
    
    /* Send the character */
    UART_DR = c;
  ac:	210d      	movs	r1, #13
}

/* Send a string via UART */
static void uart_puts(const char* str) {
  ae:	b510      	push	{r4, lr}
  b0:	3801      	subs	r0, #1
    while (*str) {
  b2:	f810 2f01 	ldrb.w	r2, [r0, #1]!
  b6:	b902      	cbnz	r2, ba <uart_puts+0x12>
        if (*str == '\n') {
            uart_putchar('\r');
        }
        uart_putchar(*str++);
    }
}
  b8:	bd10      	pop	{r4, pc}
        if (*str == '\n') {
  ba:	2a0a      	cmp	r2, #10
  bc:	d103      	bne.n	c6 <uart_puts+0x1e>
    while (UART_FR & UART_FR_TXFF) {
  be:	699a      	ldr	r2, [r3, #24]
  c0:	0692      	lsls	r2, r2, #26
  c2:	d4fc      	bmi.n	be <uart_puts+0x16>
    UART_DR = c;
  c4:	6019      	str	r1, [r3, #0]
        uart_putchar(*str++);
  c6:	7802      	ldrb	r2, [r0, #0]
    while (UART_FR & UART_FR_TXFF) {
  c8:	699c      	ldr	r4, [r3, #24]
  ca:	06a4      	lsls	r4, r4, #26
  cc:	d4fc      	bmi.n	c8 <uart_puts+0x20>
    UART_DR = c;
  ce:	601a      	str	r2, [r3, #0]
}
  d0:	e7ef      	b.n	b2 <uart_puts+0xa>

000000d2 <SystemInit>:

/* System initialization function (called from startup) */
void SystemInit(void) {
    /* For this simple demo, we don't need complex system initialization */
    /* In a real application, you might configure clocks, caches, etc. */
}
  d2:	4770      	bx	lr

000000d4 <main>:

/* Main application function */
int main(void) {
  d4:	b57f      	push	{r0, r1, r2, r3, r4, r5, r6, lr}
    UART_CR = 0;
  d6:	f04f 4380 	mov.w	r3, #1073741824	@ 0x40000000
  da:	2200      	movs	r2, #0
    UART_IBRD = 13;      /* Integer part */
  dc:	210d      	movs	r1, #13
    UART_CR = 0;
  de:	631a      	str	r2, [r3, #48]	@ 0x30
    UART_IBRD = 13;      /* Integer part */
  e0:	6259      	str	r1, [r3, #36]	@ 0x24
    UART_FBRD = 1;       /* Fractional part (approximate) */
  e2:	2101      	movs	r1, #1
  e4:	6299      	str	r1, [r3, #40]	@ 0x28
    UART_LCRH = UART_LCRH_WLEN8 | UART_LCRH_FEN;
  e6:	2170      	movs	r1, #112	@ 0x70
  e8:	62d9      	str	r1, [r3, #44]	@ 0x2c
    UART_IMSC = 0;
  ea:	639a      	str	r2, [r3, #56]	@ 0x38
    UART_CR = UART_CR_UARTEN | UART_CR_TXE | UART_CR_RXE;
  ec:	f240 3201 	movw	r2, #769	@ 0x301
  f0:	631a      	str	r2, [r3, #48]	@ 0x30
    delay(1000);
  f2:	f44f 737a 	mov.w	r3, #1000	@ 0x3e8
    while (count--) {
  f6:	461a      	mov	r2, r3
  f8:	3b01      	subs	r3, #1
  fa:	2a00      	cmp	r2, #0
  fc:	d13b      	bne.n	176 <main+0xa2>
    
    /* Initialize the UART for output */
    uart_init();
    
    /* Send startup message */
    uart_puts("===========================================\n");
  fe:	4828      	ldr	r0, [pc, #160]	@ (1a0 <main+0xcc>)
 100:	f7ff ffd2 	bl	a8 <uart_puts>
    uart_puts("ARM Cortex-M33 Custom Board Demo\n");
 104:	4827      	ldr	r0, [pc, #156]	@ (1a4 <main+0xd0>)
 106:	f7ff ffcf 	bl	a8 <uart_puts>
    uart_puts("===========================================\n");
 10a:	4825      	ldr	r0, [pc, #148]	@ (1a0 <main+0xcc>)
 10c:	f7ff ffcc 	bl	a8 <uart_puts>
    uart_puts("Board: Custom ARM Cortex-M33 Board (Renode)\n");
 110:	4825      	ldr	r0, [pc, #148]	@ (1a8 <main+0xd4>)
 112:	f7ff ffc9 	bl	a8 <uart_puts>
    uart_puts("CPU: ARM Cortex-M33 @ 100MHz\n");
 116:	4825      	ldr	r0, [pc, #148]	@ (1ac <main+0xd8>)
 118:	f7ff ffc6 	bl	a8 <uart_puts>
    uart_puts("Memory: 1MB Flash + 256KB SRAM\n");
 11c:	4824      	ldr	r0, [pc, #144]	@ (1b0 <main+0xdc>)
 11e:	f7ff ffc3 	bl	a8 <uart_puts>
    uart_puts("UART: PL011 @ 115200 baud\n");
 122:	4824      	ldr	r0, [pc, #144]	@ (1b4 <main+0xe0>)
 124:	f7ff ffc0 	bl	a8 <uart_puts>
    uart_puts("===========================================\n\n");
 128:	4823      	ldr	r0, [pc, #140]	@ (1b8 <main+0xe4>)
 12a:	f7ff ffbd 	bl	a8 <uart_puts>
    
    uart_puts("Starting counter demonstration...\n");
 12e:	4823      	ldr	r0, [pc, #140]	@ (1bc <main+0xe8>)
 130:	f7ff ffba 	bl	a8 <uart_puts>
    uart_puts("This demonstrates basic UART communication\n");
 134:	4822      	ldr	r0, [pc, #136]	@ (1c0 <main+0xec>)
 136:	f7ff ffb7 	bl	a8 <uart_puts>
    uart_puts("and timing on a custom ARM Cortex-M33 board.\n\n");
 13a:	4822      	ldr	r0, [pc, #136]	@ (1c4 <main+0xf0>)
int main(void) {
 13c:	2400      	movs	r4, #0
    uart_puts("and timing on a custom ARM Cortex-M33 board.\n\n");
 13e:	f7ff ffb3 	bl	a8 <uart_puts>
    *ptr = '\0';  /* Null terminator */
 142:	4625      	mov	r5, r4
    
    /* Main application loop */
    while (1) {
        uart_puts("Counter: ");
 144:	4820      	ldr	r0, [pc, #128]	@ (1c8 <main+0xf4>)
 146:	f7ff ffaf 	bl	a8 <uart_puts>
    *ptr = '\0';  /* Null terminator */
 14a:	f88d 500f 	strb.w	r5, [sp, #15]
    if (num == 0) {
 14e:	b9a4      	cbnz	r4, 17a <main+0xa6>
        *(--ptr) = '0';
 150:	2330      	movs	r3, #48	@ 0x30
 152:	f10d 000e 	add.w	r0, sp, #14
 156:	f88d 300e 	strb.w	r3, [sp, #14]
    uart_puts(ptr);
 15a:	f7ff ffa5 	bl	a8 <uart_puts>
        uart_put_number(counter);
        uart_puts(" - Cortex-M33 is running!\n");
 15e:	481b      	ldr	r0, [pc, #108]	@ (1cc <main+0xf8>)
 160:	f7ff ffa2 	bl	a8 <uart_puts>
        
        counter++;
 164:	4b1a      	ldr	r3, [pc, #104]	@ (1d0 <main+0xfc>)
 166:	3401      	adds	r4, #1
    while (count--) {
 168:	461a      	mov	r2, r3
 16a:	3b01      	subs	r3, #1
 16c:	b9aa      	cbnz	r2, 19a <main+0xc6>
        
        /* Add a delay between messages */
        delay(2000000);  /* Approximate 1 second delay */
        
        /* Reset counter after reaching 100 for cleaner demo */
        if (counter > 100) {
 16e:	2c65      	cmp	r4, #101	@ 0x65
 170:	d1e8      	bne.n	144 <main+0x70>
            counter = 0;
            uart_puts("\n--- Counter reset ---\n\n");
 172:	4818      	ldr	r0, [pc, #96]	@ (1d4 <main+0x100>)
 174:	e7e2      	b.n	13c <main+0x68>
        __asm__ volatile ("nop");
 176:	bf00      	nop
 178:	e7bd      	b.n	f6 <main+0x22>
 17a:	4623      	mov	r3, r4
            *(--ptr) = '0' + (num % 10);
 17c:	260a      	movs	r6, #10
    char* ptr = buffer + sizeof(buffer) - 1;
 17e:	f10d 000f 	add.w	r0, sp, #15
            *(--ptr) = '0' + (num % 10);
 182:	fbb3 f1f6 	udiv	r1, r3, r6
 186:	fb06 3211 	mls	r2, r6, r1, r3
        while (num > 0) {
 18a:	2b09      	cmp	r3, #9
            *(--ptr) = '0' + (num % 10);
 18c:	f102 0230 	add.w	r2, r2, #48	@ 0x30
            num /= 10;
 190:	460b      	mov	r3, r1
            *(--ptr) = '0' + (num % 10);
 192:	f800 2d01 	strb.w	r2, [r0, #-1]!
        while (num > 0) {
 196:	d8f4      	bhi.n	182 <main+0xae>
 198:	e7df      	b.n	15a <main+0x86>
        __asm__ volatile ("nop");
 19a:	bf00      	nop
 19c:	e7e4      	b.n	168 <main+0x94>
 19e:	bf00      	nop
 1a0:	000001d8 	ldrdeq	r0, [r0], -r8
 1a4:	00000205 			@ <UNDEFINED> instruction: 00000205
 1a8:	00000227 			@ <UNDEFINED> instruction: 00000227
 1ac:	00000254 			@ <UNDEFINED> instruction: 00000254
 1b0:	00000272 			@ <UNDEFINED> instruction: 00000272
 1b4:	00000292 			@ <UNDEFINED> instruction: 00000292
 1b8:	000002ad 			@ <UNDEFINED> instruction: 000002ad
 1bc:	000002db 	ldrdeq	r0, [r0], -fp
 1c0:	000002fe 	strdeq	r0, [r0], -lr
 1c4:	0000032a 			@ <UNDEFINED> instruction: 0000032a
 1c8:	00000359 			@ <UNDEFINED> instruction: 00000359
 1cc:	00000363 			@ <UNDEFINED> instruction: 00000363
 1d0:	001e8480 			@ <UNDEFINED> instruction: 001e8480
 1d4:	0000037e 			@ <UNDEFINED> instruction: 0000037e
 1d8:	3d3d3d3d 			@ <UNDEFINED> instruction: 3d3d3d3d
 1dc:	3d3d3d3d 			@ <UNDEFINED> instruction: 3d3d3d3d
 1e0:	3d3d3d3d 			@ <UNDEFINED> instruction: 3d3d3d3d
 1e4:	3d3d3d3d 			@ <UNDEFINED> instruction: 3d3d3d3d
 1e8:	3d3d3d3d 			@ <UNDEFINED> instruction: 3d3d3d3d
 1ec:	3d3d3d3d 			@ <UNDEFINED> instruction: 3d3d3d3d
 1f0:	3d3d3d3d 			@ <UNDEFINED> instruction: 3d3d3d3d
 1f4:	3d3d3d3d 			@ <UNDEFINED> instruction: 3d3d3d3d
 1f8:	3d3d3d3d 			@ <UNDEFINED> instruction: 3d3d3d3d
 1fc:	3d3d3d3d 			@ <UNDEFINED> instruction: 3d3d3d3d
 200:	0a3d3d3d 			@ <UNDEFINED> instruction: 0a3d3d3d
 204:	4d524100 			@ <UNDEFINED> instruction: 4d524100
 208:	726f4320 			@ <UNDEFINED> instruction: 726f4320
 20c:	2d786574 			@ <UNDEFINED> instruction: 2d786574
 210:	2033334d 			@ <UNDEFINED> instruction: 2033334d
 214:	74737543 			@ <UNDEFINED> instruction: 74737543
 218:	42206d6f 			@ <UNDEFINED> instruction: 42206d6f
 21c:	6472616f 			@ <UNDEFINED> instruction: 6472616f
 220:	6d654420 			@ <UNDEFINED> instruction: 6d654420
 224:	42000a6f 			@ <UNDEFINED> instruction: 42000a6f
 228:	6472616f 			@ <UNDEFINED> instruction: 6472616f
 22c:	7543203a 			@ <UNDEFINED> instruction: 7543203a
 230:	6d6f7473 			@ <UNDEFINED> instruction: 6d6f7473
 234:	4d524120 			@ <UNDEFINED> instruction: 4d524120
 238:	726f4320 			@ <UNDEFINED> instruction: 726f4320
 23c:	2d786574 			@ <UNDEFINED> instruction: 2d786574
 240:	2033334d 			@ <UNDEFINED> instruction: 2033334d
 244:	72616f42 			@ <UNDEFINED> instruction: 72616f42
 248:	52282064 			@ <UNDEFINED> instruction: 52282064
 24c:	646f6e65 			@ <UNDEFINED> instruction: 646f6e65
 250:	000a2965 			@ <UNDEFINED> instruction: 000a2965
 254:	3a555043 			@ <UNDEFINED> instruction: 3a555043
 258:	4d524120 			@ <UNDEFINED> instruction: 4d524120
 25c:	726f4320 			@ <UNDEFINED> instruction: 726f4320
 260:	2d786574 			@ <UNDEFINED> instruction: 2d786574
 264:	2033334d 			@ <UNDEFINED> instruction: 2033334d
 268:	30312040 			@ <UNDEFINED> instruction: 30312040
 26c:	7a484d30 			@ <UNDEFINED> instruction: 7a484d30
 270:	654d000a 			@ <UNDEFINED> instruction: 654d000a
 274:	79726f6d 			@ <UNDEFINED> instruction: 79726f6d
 278:	4d31203a 			@ <UNDEFINED> instruction: 4d31203a
 27c:	6c462042 	mcrrvs	0, 4, r2, r6, cr2
 280:	20687361 			@ <UNDEFINED> instruction: 20687361
 284:	3532202b 			@ <UNDEFINED> instruction: 3532202b
 288:	20424b36 			@ <UNDEFINED> instruction: 20424b36
 28c:	4d415253 			@ <UNDEFINED> instruction: 4d415253
 290:	4155000a 			@ <UNDEFINED> instruction: 4155000a
 294:	203a5452 			@ <UNDEFINED> instruction: 203a5452
 298:	31304c50 			@ <UNDEFINED> instruction: 31304c50
 29c:	20402031 			@ <UNDEFINED> instruction: 20402031
 2a0:	32353131 			@ <UNDEFINED> instruction: 32353131
 2a4:	62203030 			@ <UNDEFINED> instruction: 62203030
 2a8:	0a647561 			@ <UNDEFINED> instruction: 0a647561
 2ac:	3d3d3d00 			@ <UNDEFINED> instruction: 3d3d3d00
 2b0:	3d3d3d3d 			@ <UNDEFINED> instruction: 3d3d3d3d
 2b4:	3d3d3d3d 			@ <UNDEFINED> instruction: 3d3d3d3d
 2b8:	3d3d3d3d 			@ <UNDEFINED> instruction: 3d3d3d3d
 2bc:	3d3d3d3d 			@ <UNDEFINED> instruction: 3d3d3d3d
 2c0:	3d3d3d3d 			@ <UNDEFINED> instruction: 3d3d3d3d
 2c4:	3d3d3d3d 			@ <UNDEFINED> instruction: 3d3d3d3d
 2c8:	3d3d3d3d 			@ <UNDEFINED> instruction: 3d3d3d3d
 2cc:	3d3d3d3d 			@ <UNDEFINED> instruction: 3d3d3d3d
 2d0:	3d3d3d3d 			@ <UNDEFINED> instruction: 3d3d3d3d
 2d4:	3d3d3d3d 			@ <UNDEFINED> instruction: 3d3d3d3d
 2d8:	53000a0a 	movwpl	r0, #2570	@ 0xa0a
 2dc:	74726174 			@ <UNDEFINED> instruction: 74726174
 2e0:	20676e69 			@ <UNDEFINED> instruction: 20676e69
 2e4:	6e756f63 			@ <UNDEFINED> instruction: 6e756f63
 2e8:	20726574 			@ <UNDEFINED> instruction: 20726574
 2ec:	6f6d6564 			@ <UNDEFINED> instruction: 6f6d6564
 2f0:	7274736e 			@ <UNDEFINED> instruction: 7274736e
 2f4:	6f697461 			@ <UNDEFINED> instruction: 6f697461
 2f8:	2e2e2e6e 			@ <UNDEFINED> instruction: 2e2e2e6e
 2fc:	6854000a 			@ <UNDEFINED> instruction: 6854000a
 300:	64207369 			@ <UNDEFINED> instruction: 64207369
 304:	6e6f6d65 			@ <UNDEFINED> instruction: 6e6f6d65
 308:	61727473 			@ <UNDEFINED> instruction: 61727473
 30c:	20736574 			@ <UNDEFINED> instruction: 20736574
 310:	69736162 			@ <UNDEFINED> instruction: 69736162
 314:	41552063 			@ <UNDEFINED> instruction: 41552063
 318:	63205452 			@ <UNDEFINED> instruction: 63205452
 31c:	756d6d6f 			@ <UNDEFINED> instruction: 756d6d6f
 320:	6163696e 			@ <UNDEFINED> instruction: 6163696e
 324:	6e6f6974 			@ <UNDEFINED> instruction: 6e6f6974
 328:	6e61000a 			@ <UNDEFINED> instruction: 6e61000a
 32c:	69742064 			@ <UNDEFINED> instruction: 69742064
 330:	676e696d 			@ <UNDEFINED> instruction: 676e696d
 334:	206e6f20 			@ <UNDEFINED> instruction: 206e6f20
 338:	75632061 			@ <UNDEFINED> instruction: 75632061
 33c:	6d6f7473 			@ <UNDEFINED> instruction: 6d6f7473
 340:	4d524120 			@ <UNDEFINED> instruction: 4d524120
 344:	726f4320 			@ <UNDEFINED> instruction: 726f4320
 348:	2d786574 			@ <UNDEFINED> instruction: 2d786574
 34c:	2033334d 			@ <UNDEFINED> instruction: 2033334d
 350:	72616f62 			@ <UNDEFINED> instruction: 72616f62
 354:	0a0a2e64 			@ <UNDEFINED> instruction: 0a0a2e64
 358:	756f4300 			@ <UNDEFINED> instruction: 756f4300
 35c:	7265746e 			@ <UNDEFINED> instruction: 7265746e
 360:	2000203a 			@ <UNDEFINED> instruction: 2000203a
 364:	6f43202d 			@ <UNDEFINED> instruction: 6f43202d
 368:	78657472 			@ <UNDEFINED> instruction: 78657472
 36c:	33334d2d 			@ <UNDEFINED> instruction: 33334d2d
 370:	20736920 			@ <UNDEFINED> instruction: 20736920
 374:	6e6e7572 			@ <UNDEFINED> instruction: 6e6e7572
 378:	21676e69 			@ <UNDEFINED> instruction: 21676e69
 37c:	2d0a000a 			@ <UNDEFINED> instruction: 2d0a000a
 380:	43202d2d 			@ <UNDEFINED> instruction: 43202d2d
 384:	746e756f 			@ <UNDEFINED> instruction: 746e756f
 388:	72207265 			@ <UNDEFINED> instruction: 72207265
 38c:	74657365 			@ <UNDEFINED> instruction: 74657365
 390:	2d2d2d20 			@ <UNDEFINED> instruction: 2d2d2d20
 394:	00000a0a 			@ <UNDEFINED> instruction: 00000a0a
